; ModuleID = '15/1561.c'
source_filename = "15/1561.c"
target datalayout = "e-m:e-p270:32:32-p271:32:32-p272:64:64-i64:64-f80:128-n8:16:32:64-S128"
target triple = "x86_64-pc-linux-gnu"

@.str = private unnamed_addr constant [3 x i8] c"%d\00", align 1
@a = common dso_local global [1000 x [1000 x i32]] zeroinitializer, align 16

; Function Attrs: noinline nounwind uwtable
define dso_local i32 @main() #0 {
  %1 = alloca i32, align 4
  %2 = alloca i32, align 4
  %3 = alloca i32, align 4
  %4 = alloca i32, align 4
  %5 = alloca i32, align 4
  %6 = alloca i32, align 4
  %7 = alloca i32, align 4
  %8 = alloca i32, align 4
  store i32 0, i32* %1, align 4
  store i32 0, i32* %5, align 4
  store i32 0, i32* %6, align 4
  %9 = call i32 (i8*, ...) @__isoc99_scanf(i8* getelementptr inbounds ([3 x i8], [3 x i8]* @.str, i64 0, i64 0), i32* %2)
  store i32 0, i32* %3, align 4
  br label %10

10:                                               ; preds = %31, %0
  %11 = load i32, i32* %3, align 4
  %12 = load i32, i32* %2, align 4
  %13 = icmp slt i32 %11, %12
  br i1 %13, label %14, label %34

14:                                               ; preds = %10
  store i32 0, i32* %4, align 4
  br label %15

15:                                               ; preds = %27, %14
  %16 = load i32, i32* %4, align 4
  %17 = load i32, i32* %2, align 4
  %18 = icmp slt i32 %16, %17
  br i1 %18, label %19, label %30

19:                                               ; preds = %15
  %20 = load i32, i32* %3, align 4
  %21 = sext i32 %20 to i64
  %22 = getelementptr inbounds [1000 x [1000 x i32]], [1000 x [1000 x i32]]* @a, i64 0, i64 %21
  %23 = load i32, i32* %4, align 4
  %24 = sext i32 %23 to i64
  %25 = getelementptr inbounds [1000 x i32], [1000 x i32]* %22, i64 0, i64 %24
  %26 = call i32 (i8*, ...) @__isoc99_scanf(i8* getelementptr inbounds ([3 x i8], [3 x i8]* @.str, i64 0, i64 0), i32* %25)
  br label %27

27:                                               ; preds = %19
  %28 = load i32, i32* %4, align 4
  %29 = add nsw i32 %28, 1
  store i32 %29, i32* %4, align 4
  br label %15

30:                                               ; preds = %15
  br label %31

31:                                               ; preds = %30
  %32 = load i32, i32* %3, align 4
  %33 = add nsw i32 %32, 1
  store i32 %33, i32* %3, align 4
  br label %10

34:                                               ; preds = %10
  store i32 0, i32* %3, align 4
  br label %35

35:                                               ; preds = %65, %34
  %36 = load i32, i32* %3, align 4
  %37 = load i32, i32* %2, align 4
  %38 = icmp slt i32 %36, %37
  br i1 %38, label %39, label %68

39:                                               ; preds = %35
  store i32 0, i32* %7, align 4
  store i32 0, i32* %4, align 4
  br label %40

40:                                               ; preds = %57, %39
  %41 = load i32, i32* %4, align 4
  %42 = load i32, i32* %2, align 4
  %43 = icmp slt i32 %41, %42
  br i1 %43, label %44, label %60

44:                                               ; preds = %40
  %45 = load i32, i32* %3, align 4
  %46 = sext i32 %45 to i64
  %47 = getelementptr inbounds [1000 x [1000 x i32]], [1000 x [1000 x i32]]* @a, i64 0, i64 %46
  %48 = load i32, i32* %4, align 4
  %49 = sext i32 %48 to i64
  %50 = getelementptr inbounds [1000 x i32], [1000 x i32]* %47, i64 0, i64 %49
  %51 = load i32, i32* %50, align 4
  %52 = icmp eq i32 %51, 0
  br i1 %52, label %53, label %56

53:                                               ; preds = %44
  %54 = load i32, i32* %5, align 4
  %55 = add nsw i32 %54, 1
  store i32 %55, i32* %5, align 4
  store i32 1, i32* %7, align 4
  br label %56

56:                                               ; preds = %53, %44
  br label %57

57:                                               ; preds = %56
  %58 = load i32, i32* %4, align 4
  %59 = add nsw i32 %58, 1
  store i32 %59, i32* %4, align 4
  br label %40

60:                                               ; preds = %40
  %61 = load i32, i32* %7, align 4
  %62 = icmp eq i32 %61, 1
  br i1 %62, label %63, label %64

63:                                               ; preds = %60
  br label %68

64:                                               ; preds = %60
  br label %65

65:                                               ; preds = %64
  %66 = load i32, i32* %3, align 4
  %67 = add nsw i32 %66, 1
  store i32 %67, i32* %3, align 4
  br label %35

68:                                               ; preds = %63, %35
  store i32 0, i32* %4, align 4
  br label %69

69:                                               ; preds = %99, %68
  %70 = load i32, i32* %4, align 4
  %71 = load i32, i32* %2, align 4
  %72 = icmp slt i32 %70, %71
  br i1 %72, label %73, label %102

73:                                               ; preds = %69
  store i32 0, i32* %7, align 4
  store i32 0, i32* %3, align 4
  br label %74

74:                                               ; preds = %91, %73
  %75 = load i32, i32* %3, align 4
  %76 = load i32, i32* %2, align 4
  %77 = icmp slt i32 %75, %76
  br i1 %77, label %78, label %94

78:                                               ; preds = %74
  %79 = load i32, i32* %3, align 4
  %80 = sext i32 %79 to i64
  %81 = getelementptr inbounds [1000 x [1000 x i32]], [1000 x [1000 x i32]]* @a, i64 0, i64 %80
  %82 = load i32, i32* %4, align 4
  %83 = sext i32 %82 to i64
  %84 = getelementptr inbounds [1000 x i32], [1000 x i32]* %81, i64 0, i64 %83
  %85 = load i32, i32* %84, align 4
  %86 = icmp eq i32 %85, 0
  br i1 %86, label %87, label %90

87:                                               ; preds = %78
  %88 = load i32, i32* %6, align 4
  %89 = add nsw i32 %88, 1
  store i32 %89, i32* %6, align 4
  store i32 1, i32* %7, align 4
  br label %90

90:                                               ; preds = %87, %78
  br label %91

91:                                               ; preds = %90
  %92 = load i32, i32* %3, align 4
  %93 = add nsw i32 %92, 1
  store i32 %93, i32* %3, align 4
  br label %74

94:                                               ; preds = %74
  %95 = load i32, i32* %7, align 4
  %96 = icmp eq i32 %95, 1
  br i1 %96, label %97, label %98

97:                                               ; preds = %94
  br label %102

98:                                               ; preds = %94
  br label %99

99:                                               ; preds = %98
  %100 = load i32, i32* %4, align 4
  %101 = add nsw i32 %100, 1
  store i32 %101, i32* %4, align 4
  br label %69

102:                                              ; preds = %97, %69
  %103 = load i32, i32* %6, align 4
  %104 = sub nsw i32 %103, 2
  %105 = load i32, i32* %5, align 4
  %106 = sub nsw i32 %105, 2
  %107 = mul nsw i32 %104, %106
  store i32 %107, i32* %8, align 4
  %108 = load i32, i32* %8, align 4
  %109 = call i32 (i8*, ...) @printf(i8* getelementptr inbounds ([3 x i8], [3 x i8]* @.str, i64 0, i64 0), i32 %108)
  ret i32 0
}

declare dso_local i32 @__isoc99_scanf(i8*, ...) #1

declare dso_local i32 @printf(i8*, ...) #1


!llvm.module.flags = !{!0}
!llvm.ident = !{!1}

!0 = !{i32 1, !"wchar_size", i32 4}
!1 = !{!"clang version 10.0.0-4ubuntu1 "}
